; Function Attrs: mustprogress null_pointer_is_valid sspstrong uwtable
define void @_ZN20CompiledFilterOutput14copyFilterTextEv(ptr noundef readonly align 8 captures(none) dereferenceable_or_null(136) %0) #0 align 2 personality ptr @__gxx_personality_v0 {
  %2 = alloca %class.QString, align 8
  %3 = tail call noundef ptr @_ZN15QGuiApplication9clipboardEv()
  call void @llvm.lifetime.start.p0(i64 24, ptr nonnull %2) #18
  %4 = getelementptr inbounds nuw i8, ptr %0, i64 96
  %5 = load ptr, ptr %4, align 8
  %6 = getelementptr inbounds nuw i8, ptr %5, i64 24
  %7 = load ptr, ptr %6, align 8
  call void @_ZNK9QTextEdit11toPlainTextEv(ptr dead_on_unwind nonnull writable sret(%class.QString) align 8 %2, ptr noundef align 8 dereferenceable_or_null(40) %7)
  invoke void @_ZN10QClipboard7setTextERK7QStringNS_4ModeE(ptr noundef align 8 dereferenceable_or_null(16) %3, ptr noundef nonnull align 8 dereferenceable(24) %2, i32 noundef 0)
          to label %8 unwind label %13

8:                                                ; preds = %1
  %9 = load ptr, ptr %2, align 8
  %.not.i.i.i = icmp eq ptr %9, null
  br i1 %.not.i.i.i, label %_ZN7QStringD2Ev.exit, label %_ZN17QArrayDataPointerIDsE5derefEv.exit.i.i

_ZN17QArrayDataPointerIDsE5derefEv.exit.i.i:      ; preds = %8
  %10 = atomicrmw sub ptr %9, i32 1 seq_cst, align 4
  %.not.i.i = icmp eq i32 %10, 1
  br i1 %.not.i.i, label %11, label %_ZN7QStringD2Ev.exit

11:                                               ; preds = %_ZN17QArrayDataPointerIDsE5derefEv.exit.i.i
  %12 = load ptr, ptr %2, align 8
  call void @_ZN10QArrayData10deallocateEPS_xx(ptr noundef %12, i64 noundef 2, i64 noundef 8) #18
  br label %_ZN7QStringD2Ev.exit

_ZN7QStringD2Ev.exit:                             ; preds = %8, %_ZN17QArrayDataPointerIDsE5derefEv.exit.i.i, %11
  call void @llvm.lifetime.end.p0(i64 24, ptr nonnull %2) #18
  ret void

13:                                               ; preds = %1
  %14 = landingpad { ptr, i32 }
          cleanup
  %15 = load ptr, ptr %2, align 8
  %.not.i.i.i2 = icmp eq ptr %15, null
  br i1 %.not.i.i.i2, label %_ZN7QStringD2Ev.exit5, label %_ZN17QArrayDataPointerIDsE5derefEv.exit.i.i3

_ZN17QArrayDataPointerIDsE5derefEv.exit.i.i3:     ; preds = %13
  %16 = atomicrmw sub ptr %15, i32 1 seq_cst, align 4
  %.not.i.i4 = icmp eq i32 %16, 1
  br i1 %.not.i.i4, label %17, label %_ZN7QStringD2Ev.exit5

17:                                               ; preds = %_ZN17QArrayDataPointerIDsE5derefEv.exit.i.i3
  %18 = load ptr, ptr %2, align 8
  call void @_ZN10QArrayData10deallocateEPS_xx(ptr noundef %18, i64 noundef 2, i64 noundef 8) #18
  br label %_ZN7QStringD2Ev.exit5

_ZN7QStringD2Ev.exit5:                            ; preds = %13, %_ZN17QArrayDataPointerIDsE5derefEv.exit.i.i3, %17
  call void @llvm.lifetime.end.p0(i64 24, ptr nonnull %2) #18
  resume { ptr, i32 } %14
}